target datalayout = "e-m:e-p270:32:32-p271:32:32-p272:64:64-i64:64-i128:128-f80:128-n8:16:32:64-S128"
target triple = "x86_64-unknown-linux-gnu"

%struct.Token = type { i32, ptr, i64, x86_fp80, ptr, i32, ptr, ptr, ptr, ptr, i32, i32, i8, i8, ptr, ptr }

@.str.107 = private unnamed_addr constant [12 x i8] c"extra token\00", align 1

; Function Attrs: nounwind uwtable
define internal ptr @skip_line(ptr noundef %tok) #0 {
entry:
  %retval = alloca ptr, align 8
  %tok.addr = alloca ptr, align 8
  store ptr %tok, ptr %tok.addr, align 8
  %0 = load ptr, ptr %tok.addr, align 8
  %at_bol = getelementptr inbounds %struct.Token, ptr %0, i32 0, i32 12
  %1 = load i8, ptr %at_bol, align 8
  %tobool = trunc i8 %1 to i1
  br i1 %tobool, label %if.then, label %if.end

if.then:                                          ; preds = %entry
  %2 = load ptr, ptr %tok.addr, align 8
  store ptr %2, ptr %retval, align 8
  br label %return

if.end:                                           ; preds = %entry
  %3 = load ptr, ptr %tok.addr, align 8
  call void (ptr, ptr, ...) @warn_tok(ptr noundef %3, ptr noundef @.str.107)
  br label %while.cond

while.cond:                                       ; preds = %while.body, %if.end
  %4 = load ptr, ptr %tok.addr, align 8
  %at_bol1 = getelementptr inbounds %struct.Token, ptr %4, i32 0, i32 12
  %5 = load i8, ptr %at_bol1, align 8
  %tobool2 = trunc i8 %5 to i1
  br i1 %tobool2, label %while.body, label %while.end

while.body:                                       ; preds = %while.cond
  %6 = load ptr, ptr %tok.addr, align 8
  %next = getelementptr inbounds %struct.Token, ptr %6, i32 0, i32 1
  %7 = load ptr, ptr %next, align 8
  store ptr %7, ptr %tok.addr, align 8
  br label %while.cond, !llvm.loop !28

while.end:                                        ; preds = %while.cond
  %8 = load ptr, ptr %tok.addr, align 8
  store ptr %8, ptr %retval, align 8
  br label %return

return:                                           ; preds = %while.end, %if.then
  %9 = load ptr, ptr %retval, align 8
  ret ptr %9
}