; Function Attrs: nounwind uwtable
define internal fastcc ptr @skip_line(ptr noundef %tok) unnamed_addr #0 {
entry:
  %at_bol = getelementptr inbounds %struct.Token, ptr %tok, i64 0, i32 12
  %0 = load i8, ptr %at_bol, align 8
  %1 = and i8 %0, 1
  %tobool.not = icmp eq i8 %1, 0
  br i1 %tobool.not, label %if.end, label %return

if.end:                                           ; preds = %entry
  tail call void (ptr, ptr, ...) @warn_tok(ptr noundef nonnull %tok, ptr noundef nonnull @.str.107) #14
  %2 = load i8, ptr %at_bol, align 8
  %3 = and i8 %2, 1
  %tobool2.not7 = icmp eq i8 %3, 0
  br i1 %tobool2.not7, label %return, label %while.body

while.body:                                       ; preds = %if.end, %while.body
  %tok.addr.08 = phi ptr [ %4, %while.body ], [ %tok, %if.end ]
  %next = getelementptr inbounds %struct.Token, ptr %tok.addr.08, i64 0, i32 1
  %4 = load ptr, ptr %next, align 8
  %at_bol1 = getelementptr inbounds %struct.Token, ptr %4, i64 0, i32 12
  %5 = load i8, ptr %at_bol1, align 8
  %6 = and i8 %5, 1
  %tobool2.not = icmp eq i8 %6, 0
  br i1 %tobool2.not, label %return, label %while.body, !llvm.loop !42

return:                                           ; preds = %while.body, %if.end, %entry
  %retval.0 = phi ptr [ %tok, %entry ], [ %tok, %if.end ], [ %4, %while.body ]
  ret ptr %retval.0
}